; Function Attrs: nounwind uwtable
define hidden void @SDL_SetTrayEntryLabel_REAL(ptr noundef readonly captures(address_is_null) %0, ptr noundef %1) local_unnamed_addr #0 {
  %.not = icmp eq ptr %0, null
  br i1 %.not, label %7, label %3

3:                                                ; preds = %2
  %4 = load ptr, ptr @gtk_menu_item_set_label, align 8
  %5 = getelementptr inbounds nuw i8, ptr %0, i64 8
  %6 = load ptr, ptr %5, align 8
  tail call void %4(ptr noundef %6, ptr noundef %1) #10
  br label %7

7:                                                ; preds = %2, %3
  ret void
}